target datalayout = "e-m:e-p270:32:32-p271:32:32-p272:64:64-i64:64-i128:128-f80:128-n8:16:32:64-S128"
target triple = "x86_64-unknown-linux-gnu"

%"class.std::__cxx11::basic_string" = type { %"struct.std::__cxx11::basic_string<char>::_Alloc_hider", i64, %union.anon }
%"struct.std::__cxx11::basic_string<char>::_Alloc_hider" = type { ptr }
%union.anon = type { i64, [8 x i8] }
%"class.std::basic_string_view" = type { i64, ptr }
%"class.google::protobuf::internal::SymbolBase" = type { i8 }
%"struct.google::protobuf::compiler::java::Options" = type <{ i8, i8, i8, i8, i8, i8, [2 x i8], %"class.std::__cxx11::basic_string", %"class.std::__cxx11::basic_string", i8, [7 x i8] }>
%"class.google::protobuf::FieldDescriptor" = type { %"class.google::protobuf::internal::SymbolBase", i8, i8, i8, i32, ptr, ptr, ptr, ptr, %union.anon.28, %union.anon.29, ptr, ptr, ptr, %union.anon.30 }
%union.anon.28 = type { ptr }
%union.anon.29 = type { ptr }
%union.anon.30 = type { i64 }

@.str.46 = private unnamed_addr constant [4 x i8] c"def\00", align 1
@.str.48 = private unnamed_addr constant [12 x i8] c" * `$def$`\0A\00", align 1
@.str.49 = private unnamed_addr constant [23 x i8] c" * <code>$def$</code>\0A\00", align 1

; Function Attrs: noreturn nounwind uwtable
define linkonce_odr hidden void @__clang_call_terminate(ptr noundef %0) #6 comdat {
  %2 = call ptr @__cxa_begin_catch(ptr %0) #3
  call void @_ZSt9terminatev() #20
  unreachable
}

; Function Attrs: mustprogress nounwind uwtable
define linkonce_odr hidden noundef i64 @_ZNSt11char_traitsIcE6lengthEPKc(ptr noundef %__s) #5 comdat align 2 {
entry:
  %__s.addr = alloca ptr, align 8
  store ptr %__s, ptr %__s.addr, align 8
  %0 = load ptr, ptr %__s.addr, align 8
  %call = call i64 @strlen(ptr noundef %0) #3
  ret i64 %call
}

; Function Attrs: mustprogress nounwind uwtable
define linkonce_odr hidden void @_ZNSt17basic_string_viewIcSt11char_traitsIcEEC2EPKc(ptr noundef nonnull align 8 dereferenceable(16) %this, ptr noundef nonnull %__str) unnamed_addr #5 comdat align 2 personality ptr @__gxx_personality_v0 {
entry:
  %this.addr = alloca ptr, align 8
  %__str.addr = alloca ptr, align 8
  store ptr %this, ptr %this.addr, align 8
  store ptr %__str, ptr %__str.addr, align 8
  %this1 = load ptr, ptr %this.addr, align 8
  %_M_len = getelementptr inbounds %"class.std::basic_string_view", ptr %this1, i32 0, i32 0
  %0 = load ptr, ptr %__str.addr, align 8
  %call = invoke noundef i64 @_ZNSt11char_traitsIcE6lengthEPKc(ptr noundef %0)
          to label %invoke.cont unwind label %terminate.lpad

invoke.cont:                                      ; preds = %entry
  store i64 %call, ptr %_M_len, align 8
  %_M_str = getelementptr inbounds %"class.std::basic_string_view", ptr %this1, i32 0, i32 1
  %1 = load ptr, ptr %__str.addr, align 8
  store ptr %1, ptr %_M_str, align 8
  ret void

terminate.lpad:                                   ; preds = %entry
  %2 = landingpad { ptr, i32 }
          catch ptr null
  %3 = extractvalue { ptr, i32 } %2, 0
  call void @__clang_call_terminate(ptr %3) #20
  unreachable
}

; Function Attrs: mustprogress nounwind uwtable
define linkonce_odr hidden noundef nonnull align 8 dereferenceable(32) ptr @_ZNK6google8protobuf15FieldDescriptor4nameB5cxx11Ev(ptr noundef nonnull align 8 dereferenceable(88) %this) #5 comdat align 2 {
entry:
  %this.addr = alloca ptr, align 8
  store ptr %this, ptr %this.addr, align 8
  %this1 = load ptr, ptr %this.addr, align 8
  %all_names_ = getelementptr inbounds %"class.google::protobuf::FieldDescriptor", ptr %this1, i32 0, i32 5
  %0 = load ptr, ptr %all_names_, align 8
  %arrayidx = getelementptr inbounds %"class.std::__cxx11::basic_string", ptr %0, i64 0
  ret ptr %arrayidx
}

; Function Attrs: mustprogress uwtable
define internal void @_ZN6google8protobuf8compiler4javaL16WriteDebugStringEPNS0_2io7PrinterEPKNS0_15FieldDescriptorENS2_7OptionsEb(ptr noundef %printer, ptr noundef %field, ptr noundef %options, i1 noundef zeroext %kdoc) #4 personality ptr @__gxx_personality_v0 {
entry:
  %printer.addr = alloca ptr, align 8
  %field.addr = alloca ptr, align 8
  %options.indirect_addr = alloca ptr, align 8
  %kdoc.addr = alloca i8, align 1
  %field_comment = alloca %"class.std::__cxx11::basic_string", align 8
  %ref.tmp = alloca %"class.std::__cxx11::basic_string", align 8
  %exn.slot = alloca ptr, align 8
  %ehselector.slot = alloca i32, align 4
  %agg.tmp = alloca %"class.std::basic_string_view", align 8
  %ref.tmp7 = alloca %"class.std::__cxx11::basic_string", align 8
  %agg.tmp11 = alloca %"class.std::basic_string_view", align 8
  %ref.tmp12 = alloca %"class.std::__cxx11::basic_string", align 8
  store ptr %printer, ptr %printer.addr, align 8
  store ptr %field, ptr %field.addr, align 8
  store ptr %options, ptr %options.indirect_addr, align 8
  %frombool = zext i1 %kdoc to i8
  store i8 %frombool, ptr %kdoc.addr, align 1
  %0 = load ptr, ptr %field.addr, align 8
  call void @_ZNK6google8protobuf15FieldDescriptor11DebugStringB5cxx11Ev(ptr sret(%"class.std::__cxx11::basic_string") align 8 %ref.tmp, ptr noundef nonnull align 8 dereferenceable(88) %0)
  invoke void @_ZN6google8protobuf8compiler4javaL11FirstLineOfERKNSt7__cxx1112basic_stringIcSt11char_traitsIcESaIcEEE(ptr sret(%"class.std::__cxx11::basic_string") align 8 %field_comment, ptr noundef nonnull align 8 dereferenceable(32) %ref.tmp)
          to label %invoke.cont unwind label %lpad

invoke.cont:                                      ; preds = %entry
  call void @_ZNSt7__cxx1112basic_stringIcSt11char_traitsIcESaIcEED1Ev(ptr noundef nonnull align 8 dereferenceable(32) %ref.tmp) #3
  %strip_nonfunctional_codegen = getelementptr inbounds %"struct.google::protobuf::compiler::java::Options", ptr %options, i32 0, i32 9
  %1 = load i8, ptr %strip_nonfunctional_codegen, align 8
  %tobool = trunc i8 %1 to i1
  br i1 %tobool, label %if.then, label %if.end

if.then:                                          ; preds = %invoke.cont
  %2 = load ptr, ptr %field.addr, align 8
  %call = invoke noundef nonnull align 8 dereferenceable(32) ptr @_ZNK6google8protobuf15FieldDescriptor4nameB5cxx11Ev(ptr noundef nonnull align 8 dereferenceable(88) %2)
          to label %invoke.cont2 unwind label %lpad1

invoke.cont2:                                     ; preds = %if.then
  %call4 = invoke noundef nonnull align 8 dereferenceable(32) ptr @_ZNSt7__cxx1112basic_stringIcSt11char_traitsIcESaIcEEaSERKS4_(ptr noundef nonnull align 8 dereferenceable(32) %field_comment, ptr noundef nonnull align 8 dereferenceable(32) %call)
          to label %invoke.cont3 unwind label %lpad1

invoke.cont3:                                     ; preds = %invoke.cont2
  br label %if.end

lpad:                                             ; preds = %entry
  %3 = landingpad { ptr, i32 }
          cleanup
  %4 = extractvalue { ptr, i32 } %3, 0
  store ptr %4, ptr %exn.slot, align 8
  %5 = extractvalue { ptr, i32 } %3, 1
  store i32 %5, ptr %ehselector.slot, align 4
  call void @_ZNSt7__cxx1112basic_stringIcSt11char_traitsIcESaIcEED1Ev(ptr noundef nonnull align 8 dereferenceable(32) %ref.tmp) #3
  br label %eh.resume

lpad1:                                            ; preds = %if.else, %if.then6, %invoke.cont2, %if.then
  %6 = landingpad { ptr, i32 }
          cleanup
  %7 = extractvalue { ptr, i32 } %6, 0
  store ptr %7, ptr %exn.slot, align 8
  %8 = extractvalue { ptr, i32 } %6, 1
  store i32 %8, ptr %ehselector.slot, align 4
  br label %ehcleanup

if.end:                                           ; preds = %invoke.cont3, %invoke.cont
  %9 = load i8, ptr %kdoc.addr, align 1
  %tobool5 = trunc i8 %9 to i1
  br i1 %tobool5, label %if.then6, label %if.else

if.then6:                                         ; preds = %if.end
  %10 = load ptr, ptr %printer.addr, align 8
  call void @_ZNSt17basic_string_viewIcSt11char_traitsIcEEC2EPKc(ptr noundef nonnull align 8 dereferenceable(16) %agg.tmp, ptr noundef @.str.48) #3
  invoke void @_ZN6google8protobuf8compiler4javaL10EscapeKdocERKNSt7__cxx1112basic_stringIcSt11char_traitsIcESaIcEEE(ptr sret(%"class.std::__cxx11::basic_string") align 8 %ref.tmp7, ptr noundef nonnull align 8 dereferenceable(32) %field_comment)
          to label %invoke.cont8 unwind label %lpad1

invoke.cont8:                                     ; preds = %if.then6
  %11 = getelementptr inbounds { i64, ptr }, ptr %agg.tmp, i32 0, i32 0
  %12 = load i64, ptr %11, align 8
  %13 = getelementptr inbounds { i64, ptr }, ptr %agg.tmp, i32 0, i32 1
  %14 = load ptr, ptr %13, align 8
  invoke void @_ZN6google8protobuf2io7Printer5PrintIJA4_cNSt7__cxx1112basic_stringIcSt11char_traitsIcESaIcEEEEEEvSt17basic_string_viewIcS8_EDpRKT_(ptr noundef nonnull align 8 dereferenceable(256) %10, i64 %12, ptr %14, ptr noundef nonnull align 1 dereferenceable(4) @.str.46, ptr noundef nonnull align 8 dereferenceable(32) %ref.tmp7)
          to label %invoke.cont10 unwind label %lpad9

invoke.cont10:                                    ; preds = %invoke.cont8
  call void @_ZNSt7__cxx1112basic_stringIcSt11char_traitsIcESaIcEED1Ev(ptr noundef nonnull align 8 dereferenceable(32) %ref.tmp7) #3
  br label %if.end16

lpad9:                                            ; preds = %invoke.cont8
  %15 = landingpad { ptr, i32 }
          cleanup
  %16 = extractvalue { ptr, i32 } %15, 0
  store ptr %16, ptr %exn.slot, align 8
  %17 = extractvalue { ptr, i32 } %15, 1
  store i32 %17, ptr %ehselector.slot, align 4
  call void @_ZNSt7__cxx1112basic_stringIcSt11char_traitsIcESaIcEED1Ev(ptr noundef nonnull align 8 dereferenceable(32) %ref.tmp7) #3
  br label %ehcleanup

if.else:                                          ; preds = %if.end
  %18 = load ptr, ptr %printer.addr, align 8
  call void @_ZNSt17basic_string_viewIcSt11char_traitsIcEEC2EPKc(ptr noundef nonnull align 8 dereferenceable(16) %agg.tmp11, ptr noundef @.str.49) #3
  invoke void @_ZN6google8protobuf8compiler4java13EscapeJavadocERKNSt7__cxx1112basic_stringIcSt11char_traitsIcESaIcEEE(ptr sret(%"class.std::__cxx11::basic_string") align 8 %ref.tmp12, ptr noundef nonnull align 8 dereferenceable(32) %field_comment)
          to label %invoke.cont13 unwind label %lpad1

invoke.cont13:                                    ; preds = %if.else
  %19 = getelementptr inbounds { i64, ptr }, ptr %agg.tmp11, i32 0, i32 0
  %20 = load i64, ptr %19, align 8
  %21 = getelementptr inbounds { i64, ptr }, ptr %agg.tmp11, i32 0, i32 1
  %22 = load ptr, ptr %21, align 8
  invoke void @_ZN6google8protobuf2io7Printer5PrintIJA4_cNSt7__cxx1112basic_stringIcSt11char_traitsIcESaIcEEEEEEvSt17basic_string_viewIcS8_EDpRKT_(ptr noundef nonnull align 8 dereferenceable(256) %18, i64 %20, ptr %22, ptr noundef nonnull align 1 dereferenceable(4) @.str.46, ptr noundef nonnull align 8 dereferenceable(32) %ref.tmp12)
          to label %invoke.cont15 unwind label %lpad14

invoke.cont15:                                    ; preds = %invoke.cont13
  call void @_ZNSt7__cxx1112basic_stringIcSt11char_traitsIcESaIcEED1Ev(ptr noundef nonnull align 8 dereferenceable(32) %ref.tmp12) #3
  br label %if.end16

lpad14:                                           ; preds = %invoke.cont13
  %23 = landingpad { ptr, i32 }
          cleanup
  %24 = extractvalue { ptr, i32 } %23, 0
  store ptr %24, ptr %exn.slot, align 8
  %25 = extractvalue { ptr, i32 } %23, 1
  store i32 %25, ptr %ehselector.slot, align 4
  call void @_ZNSt7__cxx1112basic_stringIcSt11char_traitsIcESaIcEED1Ev(ptr noundef nonnull align 8 dereferenceable(32) %ref.tmp12) #3
  br label %ehcleanup

if.end16:                                         ; preds = %invoke.cont15, %invoke.cont10
  call void @_ZNSt7__cxx1112basic_stringIcSt11char_traitsIcESaIcEED1Ev(ptr noundef nonnull align 8 dereferenceable(32) %field_comment) #3
  ret void

ehcleanup:                                        ; preds = %lpad14, %lpad9, %lpad1
  call void @_ZNSt7__cxx1112basic_stringIcSt11char_traitsIcESaIcEED1Ev(ptr noundef nonnull align 8 dereferenceable(32) %field_comment) #3
  br label %eh.resume

eh.resume:                                        ; preds = %ehcleanup, %lpad
  %exn = load ptr, ptr %exn.slot, align 8
  %sel = load i32, ptr %ehselector.slot, align 4
  %lpad.val = insertvalue { ptr, i32 } poison, ptr %exn, 0
  %lpad.val17 = insertvalue { ptr, i32 } %lpad.val, i32 %sel, 1
  resume { ptr, i32 } %lpad.val17
}