; Function Attrs: mustprogress uwtable
define internal fastcc void @_ZN6google8protobuf8compiler4javaL16WriteDebugStringEPNS0_2io7PrinterEPKNS0_15FieldDescriptorENS2_7OptionsEb(ptr noundef %printer, ptr noundef nonnull %field, ptr noundef nonnull readonly captures(none) %options, i1 noundef zeroext %kdoc) unnamed_addr #3 personality ptr @__gxx_personality_v0 {
entry:
  %field_comment = alloca %"class.std::__cxx11::basic_string", align 8
  %ref.tmp = alloca %"class.std::__cxx11::basic_string", align 8
  %ref.tmp7 = alloca %"class.std::__cxx11::basic_string", align 8
  %ref.tmp12 = alloca %"class.std::__cxx11::basic_string", align 8
  call void @_ZNK6google8protobuf15FieldDescriptor11DebugStringB5cxx11Ev(ptr nonnull sret(%"class.std::__cxx11::basic_string") align 8 %ref.tmp, ptr noundef nonnull align 8 dereferenceable(88) %field)
  invoke fastcc void @_ZN6google8protobuf8compiler4javaL11FirstLineOfERKNSt7__cxx1112basic_stringIcSt11char_traitsIcESaIcEEE(ptr noalias align 8 %field_comment, ptr noundef nonnull align 8 dereferenceable(32) %ref.tmp)
          to label %invoke.cont unwind label %lpad

invoke.cont:                                      ; preds = %entry
  call void @_ZNSt7__cxx1112basic_stringIcSt11char_traitsIcESaIcEED1Ev(ptr noundef nonnull align 8 dereferenceable(32) %ref.tmp) #22
  %strip_nonfunctional_codegen = getelementptr inbounds nuw i8, ptr %options, i64 72
  %0 = load i8, ptr %strip_nonfunctional_codegen, align 8
  %tobool = trunc i8 %0 to i1
  br i1 %tobool, label %if.then, label %if.end

if.then:                                          ; preds = %invoke.cont
  %all_names_.i = getelementptr inbounds nuw i8, ptr %field, i64 8
  %1 = load ptr, ptr %all_names_.i, align 8
  %call4 = invoke noundef nonnull align 8 dereferenceable(32) ptr @_ZNSt7__cxx1112basic_stringIcSt11char_traitsIcESaIcEEaSERKS4_(ptr noundef nonnull align 8 dereferenceable(32) %field_comment, ptr noundef nonnull align 8 dereferenceable(32) %1)
          to label %if.end unwind label %lpad1

lpad:                                             ; preds = %entry
  %2 = landingpad { ptr, i32 }
          cleanup
  br label %eh.resume

lpad1:                                            ; preds = %if.else, %if.then6, %if.then
  %3 = landingpad { ptr, i32 }
          cleanup
  br label %eh.resume

if.end:                                           ; preds = %if.then, %invoke.cont
  br i1 %kdoc, label %if.then6, label %if.else

if.then6:                                         ; preds = %if.end
  invoke fastcc void @_ZN6google8protobuf8compiler4javaL10EscapeKdocERKNSt7__cxx1112basic_stringIcSt11char_traitsIcESaIcEEE(ptr noalias align 8 %ref.tmp7, ptr noundef nonnull align 8 dereferenceable(32) %field_comment)
          to label %invoke.cont8 unwind label %lpad1

invoke.cont8:                                     ; preds = %if.then6
  invoke void @_ZN6google8protobuf2io7Printer5PrintIJA4_cNSt7__cxx1112basic_stringIcSt11char_traitsIcESaIcEEEEEEvSt17basic_string_viewIcS8_EDpRKT_(ptr noundef nonnull align 8 dereferenceable(256) %printer, i64 11, ptr nonnull @.str.48, ptr noundef nonnull align 1 dereferenceable(4) @.str.46, ptr noundef nonnull align 8 dereferenceable(32) %ref.tmp7)
          to label %if.end16 unwind label %lpad9

lpad9:                                            ; preds = %invoke.cont8
  %4 = landingpad { ptr, i32 }
          cleanup
  call void @_ZNSt7__cxx1112basic_stringIcSt11char_traitsIcESaIcEED1Ev(ptr noundef nonnull align 8 dereferenceable(32) %ref.tmp7) #22
  br label %eh.resume

if.else:                                          ; preds = %if.end
  invoke void @_ZN6google8protobuf8compiler4java13EscapeJavadocERKNSt7__cxx1112basic_stringIcSt11char_traitsIcESaIcEEE(ptr nonnull sret(%"class.std::__cxx11::basic_string") align 8 %ref.tmp12, ptr noundef nonnull align 8 dereferenceable(32) %field_comment)
          to label %invoke.cont13 unwind label %lpad1

invoke.cont13:                                    ; preds = %if.else
  invoke void @_ZN6google8protobuf2io7Printer5PrintIJA4_cNSt7__cxx1112basic_stringIcSt11char_traitsIcESaIcEEEEEEvSt17basic_string_viewIcS8_EDpRKT_(ptr noundef nonnull align 8 dereferenceable(256) %printer, i64 22, ptr nonnull @.str.49, ptr noundef nonnull align 1 dereferenceable(4) @.str.46, ptr noundef nonnull align 8 dereferenceable(32) %ref.tmp12)
          to label %if.end16 unwind label %lpad14

lpad14:                                           ; preds = %invoke.cont13
  %5 = landingpad { ptr, i32 }
          cleanup
  call void @_ZNSt7__cxx1112basic_stringIcSt11char_traitsIcESaIcEED1Ev(ptr noundef nonnull align 8 dereferenceable(32) %ref.tmp12) #22
  br label %eh.resume

if.end16:                                         ; preds = %invoke.cont13, %invoke.cont8
  %ref.tmp12.sink = phi ptr [ %ref.tmp7, %invoke.cont8 ], [ %ref.tmp12, %invoke.cont13 ]
  call void @_ZNSt7__cxx1112basic_stringIcSt11char_traitsIcESaIcEED1Ev(ptr noundef nonnull align 8 dereferenceable(32) %ref.tmp12.sink) #22
  call void @_ZNSt7__cxx1112basic_stringIcSt11char_traitsIcESaIcEED1Ev(ptr noundef nonnull align 8 dereferenceable(32) %field_comment) #22
  ret void

eh.resume:                                        ; preds = %lpad1, %lpad9, %lpad14, %lpad
  %field_comment.sink = phi ptr [ %ref.tmp, %lpad ], [ %field_comment, %lpad14 ], [ %field_comment, %lpad9 ], [ %field_comment, %lpad1 ]
  %.pn.pn = phi { ptr, i32 } [ %2, %lpad ], [ %5, %lpad14 ], [ %4, %lpad9 ], [ %3, %lpad1 ]
  call void @_ZNSt7__cxx1112basic_stringIcSt11char_traitsIcESaIcEED1Ev(ptr noundef nonnull align 8 dereferenceable(32) %field_comment.sink) #22
  resume { ptr, i32 } %.pn.pn
}